; Function Attrs: mustprogress uwtable
define hidden noundef nonnull align 8 dereferenceable(168) ptr @_ZN19OpenColorIO_v2_5dev6OpDataaSERKS0_(ptr noundef nonnull returned align 8 dereferenceable(168) %0, ptr noundef nonnull align 8 dereferenceable(168) %1) local_unnamed_addr #6 align 2 {
  %.not = icmp eq ptr %0, %1
  br i1 %.not, label %7, label %3

3:                                                ; preds = %2
  %4 = getelementptr inbounds nuw i8, ptr %1, i64 48
  %5 = getelementptr inbounds nuw i8, ptr %0, i64 48
  %6 = tail call noundef nonnull align 8 dereferenceable(120) ptr @_ZN19OpenColorIO_v2_5dev18FormatMetadataImplaSERKS0_(ptr noundef nonnull align 8 dereferenceable(120) %5, ptr noundef nonnull align 8 dereferenceable(120) %4)
  br label %7

7:                                                ; preds = %3, %2
  ret ptr %0
}